; Function Attrs: mustprogress nounwind uwtable
define internal void @"_ZNK4$_369to_stringB5cxx11E6insn_t"(ptr dead_on_unwind noalias writable sret(%"class.std::__cxx11::basic_string") align 8 %0, ptr nocapture nonnull readnone align 8 %1, i64 %2) unnamed_addr #8 align 2 {
  %4 = lshr i64 %2, 2
  %5 = and i64 %4, 31
  %6 = shl i64 %2, 51
  %7 = ashr i64 %6, 58
  %8 = and i64 %7, 4294967264
  %9 = or disjoint i64 %8, %5
  %10 = trunc i64 %9 to i32
  tail call void @_ZNSt7__cxx119to_stringEi(ptr dead_on_unwind writable sret(%"class.std::__cxx11::basic_string") align 8 %0, i32 noundef %10) #19
  ret void
}